target datalayout = "e-m:e-p270:32:32-p271:32:32-p272:64:64-i64:64-i128:128-f80:128-n8:16:32:64-S128"
target triple = "x86_64-pc-linux-gnu"

%"class.llvm::Value" = type { i8, i8, i16, i32, ptr, ptr }

; Function Attrs: mustprogress nounwind uwtable
define linkonce_odr hidden noundef ptr @_ZNK4llvm5Value7getTypeEv(ptr noundef nonnull align 8 dereferenceable(24) %0) #1 comdat align 2 {
  %2 = alloca ptr, align 8
  store ptr %0, ptr %2, align 8
  %3 = load ptr, ptr %2, align 8
  %4 = getelementptr inbounds nuw %"class.llvm::Value", ptr %3, i32 0, i32 4
  %5 = load ptr, ptr %4, align 8
  ret ptr %5
}

; Function Attrs: mustprogress nounwind uwtable
define internal noundef ptr @_ZL16simplifySDivInstPN4llvm5ValueES1_bRKNS_13SimplifyQueryEj(ptr noundef %0, ptr noundef %1, i1 noundef zeroext %2, ptr noundef nonnull align 8 dereferenceable(58) %3, i32 noundef %4) #1 {
  %6 = alloca ptr, align 8
  %7 = alloca ptr, align 8
  %8 = alloca ptr, align 8
  %9 = alloca i8, align 1
  %10 = alloca ptr, align 8
  %11 = alloca i32, align 4
  store ptr %0, ptr %7, align 8
  store ptr %1, ptr %8, align 8
  %12 = zext i1 %2 to i8
  store i8 %12, ptr %9, align 1
  store ptr %3, ptr %10, align 8
  store i32 %4, ptr %11, align 4
  %13 = load ptr, ptr %7, align 8
  %14 = load ptr, ptr %8, align 8
  %15 = call noundef zeroext i1 @_ZN4llvm15isKnownNegationEPKNS_5ValueES2_bb(ptr noundef %13, ptr noundef %14, i1 noundef zeroext true, i1 noundef zeroext true)
  br i1 %15, label %16, label %20

16:                                               ; preds = %5
  %17 = load ptr, ptr %7, align 8
  %18 = call noundef ptr @_ZNK4llvm5Value7getTypeEv(ptr noundef nonnull align 8 dereferenceable(24) %17)
  %19 = call noundef ptr @_ZN4llvm8Constant15getAllOnesValueEPNS_4TypeE(ptr noundef %18)
  store ptr %19, ptr %6, align 8
  br label %28

20:                                               ; preds = %5
  %21 = load ptr, ptr %7, align 8
  %22 = load ptr, ptr %8, align 8
  %23 = load i8, ptr %9, align 1
  %24 = trunc i8 %23 to i1
  %25 = load ptr, ptr %10, align 8
  %26 = load i32, ptr %11, align 4
  %27 = call noundef ptr @_ZL11simplifyDivN4llvm11Instruction9BinaryOpsEPNS_5ValueES3_bRKNS_13SimplifyQueryEj(i32 noundef 20, ptr noundef %21, ptr noundef %22, i1 noundef zeroext %24, ptr noundef nonnull align 8 dereferenceable(58) %25, i32 noundef %26)
  store ptr %27, ptr %6, align 8
  br label %28

28:                                               ; preds = %20, %16
  %29 = load ptr, ptr %6, align 8
  ret ptr %29
}

; Function Attrs: mustprogress nounwind uwtable
define dso_local noundef ptr @_ZN4llvm16simplifySDivInstEPNS_5ValueES1_bRKNS_13SimplifyQueryE(ptr noundef %0, ptr noundef %1, i1 noundef zeroext %2, ptr noundef nonnull align 8 dereferenceable(58) %3) #1 {
  %5 = alloca ptr, align 8
  %6 = alloca ptr, align 8
  %7 = alloca i8, align 1
  %8 = alloca ptr, align 8
  store ptr %0, ptr %5, align 8
  store ptr %1, ptr %6, align 8
  %9 = zext i1 %2 to i8
  store i8 %9, ptr %7, align 1
  store ptr %3, ptr %8, align 8
  %10 = load ptr, ptr %5, align 8
  %11 = load ptr, ptr %6, align 8
  %12 = load i8, ptr %7, align 1
  %13 = trunc i8 %12 to i1
  %14 = load ptr, ptr %8, align 8
  %15 = call noundef ptr @_ZL16simplifySDivInstPN4llvm5ValueES1_bRKNS_13SimplifyQueryEj(ptr noundef %10, ptr noundef %11, i1 noundef zeroext %13, ptr noundef nonnull align 8 dereferenceable(58) %14, i32 noundef 3)
  ret ptr %15
}