; Function Attrs: mustprogress nounwind uwtable
define dso_local noundef ptr @_ZN4llvm16simplifySDivInstEPNS_5ValueES1_bRKNS_13SimplifyQueryE(ptr noundef %0, ptr noundef %1, i1 noundef zeroext %2, ptr noundef nonnull align 8 dereferenceable(58) %3) local_unnamed_addr #0 {
  %5 = tail call noundef zeroext i1 @_ZN4llvm15isKnownNegationEPKNS_5ValueES2_bb(ptr noundef %0, ptr noundef %1, i1 noundef zeroext true, i1 noundef zeroext true) #18
  br i1 %5, label %6, label %10

6:                                                ; preds = %4
  %7 = getelementptr inbounds nuw i8, ptr %0, i64 8
  %8 = load ptr, ptr %7, align 8
  %9 = tail call noundef ptr @_ZN4llvm8Constant15getAllOnesValueEPNS_4TypeE(ptr noundef %8) #18
  br label %_ZL16simplifySDivInstPN4llvm5ValueES1_bRKNS_13SimplifyQueryEj.exit

10:                                               ; preds = %4
  %11 = tail call fastcc noundef ptr @_ZL11simplifyDivN4llvm11Instruction9BinaryOpsEPNS_5ValueES3_bRKNS_13SimplifyQueryEj(i32 noundef 20, ptr noundef %0, ptr noundef %1, i1 noundef zeroext %2, ptr noundef nonnull align 8 dereferenceable(58) %3, i32 noundef 3)
  br label %_ZL16simplifySDivInstPN4llvm5ValueES1_bRKNS_13SimplifyQueryEj.exit

_ZL16simplifySDivInstPN4llvm5ValueES1_bRKNS_13SimplifyQueryEj.exit: ; preds = %6, %10
  %.0.i = phi ptr [ %9, %6 ], [ %11, %10 ]
  ret ptr %.0.i
}